target datalayout = "e-m:e-p270:32:32-p271:32:32-p272:64:64-i64:64-i128:128-f80:128-n8:16:32:64-S128"
target triple = "x86_64-pc-linux-gnu"

%class.cmUVPipeBuffer = type { %"struct.cm::uv_pipe_ptr", %"class.std::vector", %"class.std::function", %"class.std::function.0" }
%"struct.cm::uv_pipe_ptr" = type { %"class.cm::uv_handle_ptr_" }
%"class.cm::uv_handle_ptr_" = type { %"class.cm::uv_handle_ptr_base_" }
%"class.cm::uv_handle_ptr_base_" = type { %"class.std::shared_ptr" }
%"class.std::shared_ptr" = type { %"class.std::__shared_ptr" }
%"class.std::__shared_ptr" = type { ptr, %"class.std::__shared_count" }
%"class.std::__shared_count" = type { ptr }
%"class.std::vector" = type { %"struct.std::_Vector_base" }
%"struct.std::_Vector_base" = type { %"struct.std::_Vector_base<char, std::allocator<char>>::_Vector_impl" }
%"struct.std::_Vector_base<char, std::allocator<char>>::_Vector_impl" = type { %"struct.std::_Vector_base<char, std::allocator<char>>::_Vector_impl_data" }
%"struct.std::_Vector_base<char, std::allocator<char>>::_Vector_impl_data" = type { ptr, ptr, ptr }
%"class.std::function" = type { %"class.std::_Function_base", ptr }
%"class.std::_Function_base" = type { %"union.std::_Any_data", ptr }
%"union.std::_Any_data" = type { %"union.std::_Nocopy_types" }
%"union.std::_Nocopy_types" = type { { i64, i64 } }
%"class.std::function.0" = type { %"class.std::_Function_base", ptr }

; Function Attrs: mustprogress uwtable
define dso_local noundef zeroext i1 @_ZN14cmUVPipeBuffer4initEP9uv_loop_s(ptr noundef nonnull align 8 dereferenceable(104) %0, ptr noundef %1) #0 align 2 {
  %3 = alloca i1, align 1
  %4 = alloca ptr, align 8
  %5 = alloca ptr, align 8
  %6 = alloca i32, align 4
  store ptr %0, ptr %4, align 8
  store ptr %1, ptr %5, align 8
  %7 = load ptr, ptr %4, align 8
  call void @_ZN14cmUVPipeBuffer5resetEv(ptr noundef nonnull align 8 dereferenceable(104) %7)
  %8 = load ptr, ptr %5, align 8
  %9 = icmp eq ptr %8, null
  br i1 %9, label %10, label %11

10:                                               ; preds = %2
  store i1 false, ptr %3, align 1
  br label %17

11:                                               ; preds = %2
  %12 = getelementptr inbounds %class.cmUVPipeBuffer, ptr %7, i32 0, i32 0
  %13 = load ptr, ptr %5, align 8
  %14 = call noundef i32 @_ZN2cm11uv_pipe_ptr4initER9uv_loop_siPv(ptr noundef nonnull align 8 dereferenceable(16) %12, ptr noundef nonnull align 8 dereferenceable(848) %13, i32 noundef 0, ptr noundef %7)
  store i32 %14, ptr %6, align 4
  %15 = load i32, ptr %6, align 4
  %16 = icmp eq i32 %15, 0
  store i1 %16, ptr %3, align 1
  br label %17

17:                                               ; preds = %11, %10
  %18 = load i1, ptr %3, align 1
  ret i1 %18
}