; Function Attrs: mustprogress uwtable
define dso_local noundef zeroext i1 @_ZN14cmUVPipeBuffer4initEP9uv_loop_s(ptr noundef nonnull align 8 dereferenceable(104) %0, ptr noundef %1) local_unnamed_addr #0 align 2 {
  tail call void @_ZN14cmUVPipeBuffer5resetEv(ptr noundef nonnull align 8 dereferenceable(104) %0)
  %3 = icmp eq ptr %1, null
  br i1 %3, label %7, label %4

4:                                                ; preds = %2
  %5 = tail call noundef i32 @_ZN2cm11uv_pipe_ptr4initER9uv_loop_siPv(ptr noundef nonnull align 8 dereferenceable(16) %0, ptr noundef nonnull align 8 dereferenceable(848) %1, i32 noundef 0, ptr noundef nonnull %0)
  %6 = icmp eq i32 %5, 0
  br label %7

7:                                                ; preds = %2, %4
  %.0 = phi i1 [ %6, %4 ], [ false, %2 ]
  ret i1 %.0
}